target datalayout = "e-m:e-p270:32:32-p271:32:32-p272:64:64-i64:64-i128:128-f80:128-n8:16:32:64-S128"
target triple = "x86_64-pc-linux-gnu"

%struct.FunctionCallInfoBaseData = type { ptr, ptr, ptr, i32, i8, i16, [0 x %struct.NullableDatum] }
%struct.NullableDatum = type { i64, i8 }
%struct.BrinOpcInfo = type { i16, i8, ptr, [0 x ptr] }

; Function Attrs: inlinehint nounwind uwtable
define internal i64 @PointerGetDatum(ptr noundef %0) #2 {
  %2 = alloca ptr, align 8
  store ptr %0, ptr %2, align 8
  %3 = load ptr, ptr %2, align 8
  %4 = ptrtoint ptr %3 to i64
  ret i64 %4
}

; Function Attrs: inlinehint nounwind uwtable
define internal i32 @DatumGetObjectId(i64 noundef %0) #2 {
  %2 = alloca i64, align 8
  store i64 %0, ptr %2, align 8
  %3 = load i64, ptr %2, align 8
  %4 = trunc i64 %3 to i32
  ret i32 %4
}

; Function Attrs: nounwind uwtable
define dso_local i64 @brin_minmax_opcinfo(ptr noundef %0) #0 {
  %2 = alloca ptr, align 8
  %3 = alloca i32, align 4
  %4 = alloca ptr, align 8
  store ptr %0, ptr %2, align 8
  call void @llvm.lifetime.start.p0(i64 4, ptr %3) #5
  %5 = load ptr, ptr %2, align 8
  %6 = getelementptr inbounds nuw %struct.FunctionCallInfoBaseData, ptr %5, i32 0, i32 6
  %7 = getelementptr inbounds [0 x %struct.NullableDatum], ptr %6, i64 0, i64 0
  %8 = getelementptr inbounds nuw %struct.NullableDatum, ptr %7, i32 0, i32 0
  %9 = load i64, ptr %8, align 8
  %10 = call i32 @DatumGetObjectId(i64 noundef %9)
  store i32 %10, ptr %3, align 4
  call void @llvm.lifetime.start.p0(i64 8, ptr %4) #5
  %11 = call ptr @palloc0(i64 noundef 280)
  store ptr %11, ptr %4, align 8
  %12 = load ptr, ptr %4, align 8
  %13 = getelementptr inbounds nuw %struct.BrinOpcInfo, ptr %12, i32 0, i32 0
  store i16 2, ptr %13, align 8
  %14 = load ptr, ptr %4, align 8
  %15 = getelementptr inbounds nuw %struct.BrinOpcInfo, ptr %14, i32 0, i32 1
  store i8 1, ptr %15, align 2
  %16 = load ptr, ptr %4, align 8
  %17 = getelementptr inbounds nuw i8, ptr %16, i64 32
  %18 = ptrtoint ptr %17 to i64
  %19 = add i64 %18, 7
  %20 = and i64 %19, -8
  %21 = inttoptr i64 %20 to ptr
  %22 = load ptr, ptr %4, align 8
  %23 = getelementptr inbounds nuw %struct.BrinOpcInfo, ptr %22, i32 0, i32 2
  store ptr %21, ptr %23, align 8
  %24 = load i32, ptr %3, align 4
  %25 = call ptr @lookup_type_cache(i32 noundef %24, i32 noundef 0)
  %26 = load ptr, ptr %4, align 8
  %27 = getelementptr inbounds nuw %struct.BrinOpcInfo, ptr %26, i32 0, i32 3
  %28 = getelementptr inbounds [0 x ptr], ptr %27, i64 0, i64 1
  store ptr %25, ptr %28, align 8
  %29 = load ptr, ptr %4, align 8
  %30 = getelementptr inbounds nuw %struct.BrinOpcInfo, ptr %29, i32 0, i32 3
  %31 = getelementptr inbounds [0 x ptr], ptr %30, i64 0, i64 0
  store ptr %25, ptr %31, align 8
  %32 = load ptr, ptr %4, align 8
  %33 = call i64 @PointerGetDatum(ptr noundef %32)
  call void @llvm.lifetime.end.p0(i64 8, ptr %4) #5
  call void @llvm.lifetime.end.p0(i64 4, ptr %3) #5
  ret i64 %33
}